; Function Attrs: nounwind uwtable
define dso_local range(i32 0, 3) i32 @determine_protocol_version_client(ptr noundef readonly captures(none) %0) local_unnamed_addr #0 {
  %scevgep = getelementptr i8, ptr %0, i64 8
  br label %2

2:                                                ; preds = %3, %1
  %.07.i = phi ptr [ %0, %1 ], [ %5, %3 ]
  %.06.i.idx = phi i64 [ 0, %1 ], [ %.06.i.add, %3 ]
  %exitcond = icmp eq i64 %.06.i.idx, 8
  br i1 %exitcond, label %8, label %3

3:                                                ; preds = %2
  %.06.i.ptr = getelementptr inbounds nuw i8, ptr @.str.9, i64 %.06.i.idx
  %4 = load i8, ptr %.06.i.ptr, align 1, !tbaa !11
  %5 = getelementptr inbounds nuw i8, ptr %.07.i, i64 1
  %6 = load i8, ptr %.07.i, align 1, !tbaa !11
  %.06.i.add = add nuw nsw i64 %.06.i.idx, 1
  %7 = icmp eq i8 %6, %4
  br i1 %7, label %2, label %skip_prefix.exit, !llvm.loop !20

8:                                                ; preds = %2
  %9 = load i8, ptr %scevgep, align 1
  switch i8 %9, label %parse_protocol_version.exit.thread [
    i8 48, label %.tail9.sink.split.i.thread
    i8 49, label %.tail9.sink.split.i
    i8 50, label %sub_111.i
  ]

sub_111.i:                                        ; preds = %8
  br label %.tail9.sink.split.i

.tail9.sink.split.i:                              ; preds = %8, %sub_111.i
  %.sink23.i = phi i32 [ 2, %sub_111.i ], [ 1, %8 ]
  %10 = getelementptr i8, ptr %0, i64 9
  %11 = load i8, ptr %10, align 1
  %12 = icmp eq i8 %11, 0
  br i1 %12, label %skip_prefix.exit, label %parse_protocol_version.exit.thread

.tail9.sink.split.i.thread:                       ; preds = %8
  %13 = getelementptr i8, ptr %0, i64 9
  %14 = load i8, ptr %13, align 1
  %15 = icmp eq i8 %14, 0
  br i1 %15, label %16, label %parse_protocol_version.exit.thread

parse_protocol_version.exit.thread:               ; preds = %.tail9.sink.split.i.thread, %.tail9.sink.split.i, %8
  tail call void (ptr, ...) @die(ptr noundef nonnull @.str.10) #8
  unreachable

16:                                               ; preds = %.tail9.sink.split.i.thread
  tail call void (ptr, ...) @die(ptr noundef nonnull @.str.11) #8
  unreachable

skip_prefix.exit:                                 ; preds = %3, %.tail9.sink.split.i
  %.0 = phi i32 [ %.sink23.i, %.tail9.sink.split.i ], [ 0, %3 ]
  ret i32 %.0
}